target datalayout = "e-m:e-p270:32:32-p271:32:32-p272:64:64-i64:64-i128:128-f80:128-n8:16:32:64-S128"
target triple = "x86_64-pc-linux-gnu"

%struct.psa_storage_info_t = type { i32, i32 }

; Function Attrs: nounwind uwtable
define hidden i32 @psa_its_get(i64 noundef %0, i32 noundef %1, i32 noundef %2, ptr noundef %3, ptr noundef %4) #0 {
  %6 = alloca i64, align 8
  %7 = alloca i32, align 4
  %8 = alloca i32, align 4
  %9 = alloca ptr, align 8
  %10 = alloca ptr, align 8
  %11 = alloca i32, align 4
  %12 = alloca ptr, align 8
  %13 = alloca i64, align 8
  %14 = alloca %struct.psa_storage_info_t, align 4
  store i64 %0, ptr %6, align 8, !tbaa !3
  store i32 %1, ptr %7, align 4, !tbaa !12
  store i32 %2, ptr %8, align 4, !tbaa !12
  store ptr %3, ptr %9, align 8, !tbaa !20
  store ptr %4, ptr %10, align 8, !tbaa !21
  call void @llvm.lifetime.start.p0(i64 4, ptr %11) #7
  call void @llvm.lifetime.start.p0(i64 8, ptr %12) #7
  store ptr null, ptr %12, align 8, !tbaa !10
  call void @llvm.lifetime.start.p0(i64 8, ptr %13) #7
  call void @llvm.lifetime.start.p0(i64 8, ptr %14) #7
  %15 = load i64, ptr %6, align 8, !tbaa !3
  %16 = call i32 @psa_its_read_file(i64 noundef %15, ptr noundef %14, ptr noundef %12)
  store i32 %16, ptr %11, align 4, !tbaa !12
  %17 = load i32, ptr %11, align 4, !tbaa !12
  %18 = icmp ne i32 %17, 0
  br i1 %18, label %19, label %20

19:                                               ; preds = %5
  br label %60

20:                                               ; preds = %5
  store i32 -135, ptr %11, align 4, !tbaa !12
  %21 = load i32, ptr %7, align 4, !tbaa !12
  %22 = load i32, ptr %8, align 4, !tbaa !12
  %23 = add i32 %21, %22
  %24 = load i32, ptr %7, align 4, !tbaa !12
  %25 = icmp ult i32 %23, %24
  br i1 %25, label %26, label %27

26:                                               ; preds = %20
  br label %60

27:                                               ; preds = %20
  %28 = load i32, ptr %7, align 4, !tbaa !12
  %29 = load i32, ptr %8, align 4, !tbaa !12
  %30 = add i32 %28, %29
  %31 = getelementptr inbounds nuw %struct.psa_storage_info_t, ptr %14, i32 0, i32 0
  %32 = load i32, ptr %31, align 4, !tbaa !17
  %33 = icmp ugt i32 %30, %32
  br i1 %33, label %34, label %35

34:                                               ; preds = %27
  br label %60

35:                                               ; preds = %27
  store i32 -146, ptr %11, align 4, !tbaa !12
  %36 = load ptr, ptr %12, align 8, !tbaa !10
  %37 = load i32, ptr %7, align 4, !tbaa !12
  %38 = zext i32 %37 to i64
  %39 = call i32 @fseek(ptr noundef %36, i64 noundef %38, i32 noundef 1)
  %40 = icmp ne i32 %39, 0
  br i1 %40, label %41, label %42

41:                                               ; preds = %35
  br label %60

42:                                               ; preds = %35
  %43 = load ptr, ptr %9, align 8, !tbaa !20
  %44 = load i32, ptr %8, align 4, !tbaa !12
  %45 = zext i32 %44 to i64
  %46 = load ptr, ptr %12, align 8, !tbaa !10
  %47 = call i64 @fread(ptr noundef %43, i64 noundef 1, i64 noundef %45, ptr noundef %46)
  store i64 %47, ptr %13, align 8, !tbaa !3
  %48 = load i64, ptr %13, align 8, !tbaa !3
  %49 = load i32, ptr %8, align 4, !tbaa !12
  %50 = zext i32 %49 to i64
  %51 = icmp ne i64 %48, %50
  br i1 %51, label %52, label %53

52:                                               ; preds = %42
  br label %60

53:                                               ; preds = %42
  store i32 0, ptr %11, align 4, !tbaa !12
  %54 = load ptr, ptr %10, align 8, !tbaa !21
  %55 = icmp ne ptr %54, null
  br i1 %55, label %56, label %59

56:                                               ; preds = %53
  %57 = load i64, ptr %13, align 8, !tbaa !3
  %58 = load ptr, ptr %10, align 8, !tbaa !21
  store i64 %57, ptr %58, align 8, !tbaa !3
  br label %59

59:                                               ; preds = %56, %53
  br label %60

60:                                               ; preds = %59, %52, %41, %34, %26, %19
  %61 = load ptr, ptr %12, align 8, !tbaa !10
  %62 = icmp ne ptr %61, null
  br i1 %62, label %63, label %66

63:                                               ; preds = %60
  %64 = load ptr, ptr %12, align 8, !tbaa !10
  %65 = call i32 @fclose(ptr noundef %64)
  br label %66

66:                                               ; preds = %63, %60
  %67 = load i32, ptr %11, align 4, !tbaa !12
  call void @llvm.lifetime.end.p0(i64 8, ptr %14) #7
  call void @llvm.lifetime.end.p0(i64 8, ptr %13) #7
  call void @llvm.lifetime.end.p0(i64 8, ptr %12) #7
  call void @llvm.lifetime.end.p0(i64 4, ptr %11) #7
  ret i32 %67
}