; Function Attrs: nofree nounwind uwtable
define hidden range(i32 -152, 1) i32 @psa_its_get(i64 noundef %0, i32 noundef %1, i32 noundef %2, ptr noundef captures(none) %3, ptr noundef writeonly %4) local_unnamed_addr #0 {
  %6 = alloca ptr, align 8
  %7 = alloca %struct.psa_storage_info_t, align 4
  call void @llvm.lifetime.start.p0(i64 8, ptr nonnull %6) #4
  call void @llvm.lifetime.start.p0(i64 8, ptr nonnull %7) #4
  %8 = call fastcc i32 @psa_its_read_file(i64 noundef %0, ptr noundef nonnull %7, ptr noundef %6)
  %.not = icmp eq i32 %8, 0
  br i1 %.not, label %9, label %.thread-pre-split_crit_edge

.thread-pre-split_crit_edge:                      ; preds = %5
  %.pr.pre = load ptr, ptr %6, align 8, !tbaa !3
  br label %thread-pre-split

9:                                                ; preds = %5
  %10 = add i32 %2, %1
  %11 = icmp ult i32 %10, %1
  %12 = load i32, ptr %7, align 4
  %13 = icmp ugt i32 %10, %12
  %or.cond = select i1 %11, i1 true, i1 %13
  %.pr.pre26 = load ptr, ptr %6, align 8, !tbaa !3
  br i1 %or.cond, label %thread-pre-split, label %14

14:                                               ; preds = %9
  %15 = zext i32 %1 to i64
  %16 = tail call i32 @fseek(ptr noundef %.pr.pre26, i64 noundef %15, i32 noundef 1)
  %.not21 = icmp eq i32 %16, 0
  br i1 %.not21, label %17, label %thread-pre-split

17:                                               ; preds = %14
  %18 = zext i32 %2 to i64
  %19 = tail call i64 @fread(ptr noundef %3, i64 noundef 1, i64 noundef %18, ptr noundef %.pr.pre26)
  %.not22 = icmp eq i64 %19, %18
  br i1 %.not22, label %20, label %thread-pre-split

20:                                               ; preds = %17
  %.not23 = icmp eq ptr %4, null
  br i1 %.not23, label %thread-pre-split, label %21

21:                                               ; preds = %20
  store i64 %18, ptr %4, align 8, !tbaa !12
  br label %thread-pre-split

thread-pre-split:                                 ; preds = %20, %21, %17, %9, %.thread-pre-split_crit_edge, %14
  %22 = phi ptr [ %.pr.pre26, %14 ], [ %.pr.pre26, %20 ], [ %.pr.pre26, %21 ], [ %.pr.pre26, %17 ], [ %.pr.pre26, %9 ], [ %.pr.pre, %.thread-pre-split_crit_edge ]
  %.0 = phi i32 [ -146, %14 ], [ 0, %20 ], [ 0, %21 ], [ -146, %17 ], [ -135, %9 ], [ %8, %.thread-pre-split_crit_edge ]
  %.not24 = icmp eq ptr %22, null
  br i1 %.not24, label %25, label %23

23:                                               ; preds = %thread-pre-split
  %24 = tail call i32 @fclose(ptr noundef nonnull %22)
  br label %25

25:                                               ; preds = %23, %thread-pre-split
  call void @llvm.lifetime.end.p0(i64 8, ptr nonnull %7) #4
  call void @llvm.lifetime.end.p0(i64 8, ptr nonnull %6) #4
  ret i32 %.0
}